target datalayout = "e-m:e-p270:32:32-p271:32:32-p272:64:64-i64:64-i128:128-f80:128-n8:16:32:64-S128"
target triple = "x86_64-pc-linux-gnu"

%struct._zend_fcall_info_cache = type { ptr, ptr, ptr, ptr, ptr }
%struct._zval_struct = type { %union._zend_value, %union.anon.3, %union.anon.6 }
%union._zend_value = type { i64 }
%union.anon.3 = type { i32 }
%union.anon.6 = type { i32 }
%struct._zend_array = type { %struct._zend_refcounted_h, %union.anon.0, i32, %union.anon.1, i32, i32, i32, i32, i64, ptr }
%struct._zend_refcounted_h = type { i32, %union.anon }
%union.anon = type { i32 }
%union.anon.0 = type { i32 }
%union.anon.1 = type { ptr }
%struct.zend_get_gc_buffer = type { ptr, ptr, ptr }
%struct.php_dom_xpath_callback_ns = type { %struct._zend_array, i32 }
%struct.php_dom_xpath_callbacks = type { ptr, ptr, ptr }
%struct._Bucket = type { %struct._zval_struct, i64, ptr }

; Function Attrs: nounwind uwtable
define internal void @php_dom_xpath_callback_ns_get_gc(ptr noundef %0, ptr noundef %1) #0 {
  %3 = alloca ptr, align 8
  %4 = alloca ptr, align 8
  %5 = alloca ptr, align 8
  %6 = alloca ptr, align 8
  %7 = alloca ptr, align 8
  %8 = alloca ptr, align 8
  %9 = alloca ptr, align 8
  %10 = alloca ptr, align 8
  %11 = alloca ptr, align 8
  %12 = alloca ptr, align 8
  %13 = alloca ptr, align 8
  %14 = alloca ptr, align 8
  %15 = alloca ptr, align 8
  %16 = alloca ptr, align 8
  %17 = alloca ptr, align 8
  %18 = alloca ptr, align 8
  store ptr %0, ptr %12, align 8
  store ptr %1, ptr %13, align 8
  br label %19

19:                                               ; preds = %2
  %20 = load ptr, ptr %12, align 8
  %21 = getelementptr inbounds %struct.php_dom_xpath_callback_ns, ptr %20, i32 0, i32 0
  store ptr %21, ptr %15, align 8
  %22 = load ptr, ptr %15, align 8
  %23 = getelementptr inbounds %struct._zend_array, ptr %22, i32 0, i32 3
  %24 = load ptr, ptr %23, align 8
  %25 = getelementptr inbounds %struct._Bucket, ptr %24, i64 0
  store ptr %25, ptr %16, align 8
  %26 = load ptr, ptr %15, align 8
  %27 = getelementptr inbounds %struct._zend_array, ptr %26, i32 0, i32 3
  %28 = load ptr, ptr %27, align 8
  %29 = load ptr, ptr %15, align 8
  %30 = getelementptr inbounds %struct._zend_array, ptr %29, i32 0, i32 4
  %31 = load i32, ptr %30, align 8
  %32 = zext i32 %31 to i64
  %33 = getelementptr inbounds %struct._Bucket, ptr %28, i64 %32
  store ptr %33, ptr %17, align 8
  %34 = load ptr, ptr %15, align 8
  %35 = getelementptr inbounds %struct._zend_array, ptr %34, i32 0, i32 1
  %36 = load i32, ptr %35, align 8
  %37 = and i32 %36, 4
  %38 = icmp ne i32 %37, 0
  %39 = xor i1 %38, true
  call void @llvm.assume(i1 %39)
  br label %40

40:                                               ; preds = %124, %19
  %41 = load ptr, ptr %16, align 8
  %42 = load ptr, ptr %17, align 8
  %43 = icmp ne ptr %41, %42
  br i1 %43, label %44, label %127

44:                                               ; preds = %40
  %45 = load ptr, ptr %16, align 8
  %46 = getelementptr inbounds %struct._Bucket, ptr %45, i32 0, i32 0
  store ptr %46, ptr %18, align 8
  %47 = load ptr, ptr %18, align 8
  store ptr %47, ptr %11, align 8
  %48 = load ptr, ptr %11, align 8
  %49 = getelementptr inbounds %struct._zval_struct, ptr %48, i32 0, i32 1
  %50 = load i8, ptr %49, align 8
  %51 = zext i8 %50 to i32
  %52 = icmp eq i32 %51, 0
  %53 = xor i1 %52, true
  %54 = xor i1 %53, true
  %55 = zext i1 %54 to i32
  %56 = sext i32 %55 to i64
  %57 = icmp ne i64 %56, 0
  br i1 %57, label %58, label %59

58:                                               ; preds = %44
  br label %124

59:                                               ; preds = %44
  %60 = load ptr, ptr %18, align 8
  %61 = getelementptr inbounds %struct._zval_struct, ptr %60, i32 0, i32 0
  %62 = load ptr, ptr %61, align 8
  store ptr %62, ptr %14, align 8
  %63 = load ptr, ptr %13, align 8
  %64 = load ptr, ptr %14, align 8
  store ptr %63, ptr %9, align 8
  store ptr %64, ptr %10, align 8
  %65 = load ptr, ptr %10, align 8
  %66 = load ptr, ptr %65, align 8
  %67 = icmp ne ptr %66, null
  call void @llvm.assume(i1 %67)
  %68 = load ptr, ptr %10, align 8
  %69 = getelementptr inbounds %struct._zend_fcall_info_cache, ptr %68, i32 0, i32 3
  %70 = load ptr, ptr %69, align 8
  %71 = icmp ne ptr %70, null
  br i1 %71, label %72, label %95

72:                                               ; preds = %59
  %73 = load ptr, ptr %9, align 8
  %74 = load ptr, ptr %10, align 8
  %75 = getelementptr inbounds %struct._zend_fcall_info_cache, ptr %74, i32 0, i32 3
  %76 = load ptr, ptr %75, align 8
  store ptr %73, ptr %6, align 8
  store ptr %76, ptr %7, align 8
  %77 = load ptr, ptr %6, align 8
  %78 = load ptr, ptr %77, align 8
  %79 = load ptr, ptr %6, align 8
  %80 = getelementptr inbounds %struct.zend_get_gc_buffer, ptr %79, i32 0, i32 1
  %81 = load ptr, ptr %80, align 8
  %82 = icmp eq ptr %78, %81
  br i1 %82, label %83, label %85

83:                                               ; preds = %72
  %84 = load ptr, ptr %6, align 8
  call void @zend_get_gc_buffer_grow(ptr noundef %84) #8
  br label %85

85:                                               ; preds = %83, %72
  %86 = load ptr, ptr %6, align 8
  %87 = load ptr, ptr %86, align 8
  store ptr %87, ptr %8, align 8
  %88 = load ptr, ptr %7, align 8
  %89 = load ptr, ptr %8, align 8
  store ptr %88, ptr %89, align 8
  %90 = load ptr, ptr %8, align 8
  %91 = getelementptr inbounds %struct._zval_struct, ptr %90, i32 0, i32 1
  store i32 776, ptr %91, align 8
  %92 = load ptr, ptr %6, align 8
  %93 = load ptr, ptr %92, align 8
  %94 = getelementptr inbounds %struct._zval_struct, ptr %93, i32 1
  store ptr %94, ptr %92, align 8
  br label %95

95:                                               ; preds = %85, %59
  %96 = load ptr, ptr %10, align 8
  %97 = getelementptr inbounds %struct._zend_fcall_info_cache, ptr %96, i32 0, i32 4
  %98 = load ptr, ptr %97, align 8
  %99 = icmp ne ptr %98, null
  br i1 %99, label %100, label %123

100:                                              ; preds = %95
  %101 = load ptr, ptr %9, align 8
  %102 = load ptr, ptr %10, align 8
  %103 = getelementptr inbounds %struct._zend_fcall_info_cache, ptr %102, i32 0, i32 4
  %104 = load ptr, ptr %103, align 8
  store ptr %101, ptr %3, align 8
  store ptr %104, ptr %4, align 8
  %105 = load ptr, ptr %3, align 8
  %106 = load ptr, ptr %105, align 8
  %107 = load ptr, ptr %3, align 8
  %108 = getelementptr inbounds %struct.zend_get_gc_buffer, ptr %107, i32 0, i32 1
  %109 = load ptr, ptr %108, align 8
  %110 = icmp eq ptr %106, %109
  br i1 %110, label %111, label %113

111:                                              ; preds = %100
  %112 = load ptr, ptr %3, align 8
  call void @zend_get_gc_buffer_grow(ptr noundef %112) #8
  br label %113

113:                                              ; preds = %111, %100
  %114 = load ptr, ptr %3, align 8
  %115 = load ptr, ptr %114, align 8
  store ptr %115, ptr %5, align 8
  %116 = load ptr, ptr %4, align 8
  %117 = load ptr, ptr %5, align 8
  store ptr %116, ptr %117, align 8
  %118 = load ptr, ptr %5, align 8
  %119 = getelementptr inbounds %struct._zval_struct, ptr %118, i32 0, i32 1
  store i32 776, ptr %119, align 8
  %120 = load ptr, ptr %3, align 8
  %121 = load ptr, ptr %120, align 8
  %122 = getelementptr inbounds %struct._zval_struct, ptr %121, i32 1
  store ptr %122, ptr %120, align 8
  br label %123

123:                                              ; preds = %113, %95
  br label %124

124:                                              ; preds = %123, %58
  %125 = load ptr, ptr %16, align 8
  %126 = getelementptr inbounds %struct._Bucket, ptr %125, i32 1
  store ptr %126, ptr %16, align 8
  br label %40

127:                                              ; preds = %40
  br label %128

128:                                              ; preds = %127
  ret void
}

; Function Attrs: nounwind uwtable
define void @php_dom_xpath_callbacks_get_gc(ptr noundef %0, ptr noundef %1) #0 {
  %3 = alloca ptr, align 8
  %4 = alloca ptr, align 8
  %5 = alloca ptr, align 8
  %6 = alloca ptr, align 8
  %7 = alloca ptr, align 8
  %8 = alloca ptr, align 8
  %9 = alloca ptr, align 8
  %10 = alloca ptr, align 8
  store ptr %0, ptr %4, align 8
  store ptr %1, ptr %5, align 8
  %11 = load ptr, ptr %4, align 8
  %12 = getelementptr inbounds %struct.php_dom_xpath_callbacks, ptr %11, i32 0, i32 0
  %13 = load ptr, ptr %12, align 8
  %14 = icmp ne ptr %13, null
  br i1 %14, label %15, label %20

15:                                               ; preds = %2
  %16 = load ptr, ptr %4, align 8
  %17 = getelementptr inbounds %struct.php_dom_xpath_callbacks, ptr %16, i32 0, i32 0
  %18 = load ptr, ptr %17, align 8
  %19 = load ptr, ptr %5, align 8
  call void @php_dom_xpath_callback_ns_get_gc(ptr noundef %18, ptr noundef %19)
  br label %20

20:                                               ; preds = %15, %2
  %21 = load ptr, ptr %4, align 8
  %22 = getelementptr inbounds %struct.php_dom_xpath_callbacks, ptr %21, i32 0, i32 1
  %23 = load ptr, ptr %22, align 8
  %24 = icmp ne ptr %23, null
  br i1 %24, label %25, label %78

25:                                               ; preds = %20
  br label %26

26:                                               ; preds = %25
  %27 = load ptr, ptr %4, align 8
  %28 = getelementptr inbounds %struct.php_dom_xpath_callbacks, ptr %27, i32 0, i32 1
  %29 = load ptr, ptr %28, align 8
  store ptr %29, ptr %7, align 8
  %30 = load ptr, ptr %7, align 8
  %31 = getelementptr inbounds %struct._zend_array, ptr %30, i32 0, i32 3
  %32 = load ptr, ptr %31, align 8
  %33 = getelementptr inbounds %struct._Bucket, ptr %32, i64 0
  store ptr %33, ptr %8, align 8
  %34 = load ptr, ptr %7, align 8
  %35 = getelementptr inbounds %struct._zend_array, ptr %34, i32 0, i32 3
  %36 = load ptr, ptr %35, align 8
  %37 = load ptr, ptr %7, align 8
  %38 = getelementptr inbounds %struct._zend_array, ptr %37, i32 0, i32 4
  %39 = load i32, ptr %38, align 8
  %40 = zext i32 %39 to i64
  %41 = getelementptr inbounds %struct._Bucket, ptr %36, i64 %40
  store ptr %41, ptr %9, align 8
  %42 = load ptr, ptr %7, align 8
  %43 = getelementptr inbounds %struct._zend_array, ptr %42, i32 0, i32 1
  %44 = load i32, ptr %43, align 8
  %45 = and i32 %44, 4
  %46 = icmp ne i32 %45, 0
  %47 = xor i1 %46, true
  call void @llvm.assume(i1 %47)
  br label %48

48:                                               ; preds = %73, %26
  %49 = load ptr, ptr %8, align 8
  %50 = load ptr, ptr %9, align 8
  %51 = icmp ne ptr %49, %50
  br i1 %51, label %52, label %76

52:                                               ; preds = %48
  %53 = load ptr, ptr %8, align 8
  %54 = getelementptr inbounds %struct._Bucket, ptr %53, i32 0, i32 0
  store ptr %54, ptr %10, align 8
  %55 = load ptr, ptr %10, align 8
  store ptr %55, ptr %3, align 8
  %56 = load ptr, ptr %3, align 8
  %57 = getelementptr inbounds %struct._zval_struct, ptr %56, i32 0, i32 1
  %58 = load i8, ptr %57, align 8
  %59 = zext i8 %58 to i32
  %60 = icmp eq i32 %59, 0
  %61 = xor i1 %60, true
  %62 = xor i1 %61, true
  %63 = zext i1 %62 to i32
  %64 = sext i32 %63 to i64
  %65 = icmp ne i64 %64, 0
  br i1 %65, label %66, label %67

66:                                               ; preds = %52
  br label %73

67:                                               ; preds = %52
  %68 = load ptr, ptr %10, align 8
  %69 = getelementptr inbounds %struct._zval_struct, ptr %68, i32 0, i32 0
  %70 = load ptr, ptr %69, align 8
  store ptr %70, ptr %6, align 8
  %71 = load ptr, ptr %6, align 8
  %72 = load ptr, ptr %5, align 8
  call void @php_dom_xpath_callback_ns_get_gc(ptr noundef %71, ptr noundef %72)
  br label %73

73:                                               ; preds = %67, %66
  %74 = load ptr, ptr %8, align 8
  %75 = getelementptr inbounds %struct._Bucket, ptr %74, i32 1
  store ptr %75, ptr %8, align 8
  br label %48

76:                                               ; preds = %48
  br label %77

77:                                               ; preds = %76
  br label %78

78:                                               ; preds = %77, %20
  ret void
}