; Function Attrs: nounwind uwtable
define void @php_dom_xpath_callbacks_get_gc(ptr nocapture noundef readonly %0, ptr noundef %1) local_unnamed_addr #0 {
  %3 = load ptr, ptr %0, align 8
  %.not = icmp eq ptr %3, null
  br i1 %.not, label %php_dom_xpath_callback_ns_get_gc.exit, label %4

4:                                                ; preds = %2
  %5 = getelementptr inbounds i8, ptr %3, i64 16
  %6 = load ptr, ptr %5, align 8
  %7 = getelementptr inbounds i8, ptr %3, i64 24
  %8 = load i32, ptr %7, align 8
  %9 = zext i32 %8 to i64
  %10 = getelementptr inbounds %struct._Bucket, ptr %6, i64 %9
  %11 = getelementptr inbounds i8, ptr %3, i64 8
  %12 = load i32, ptr %11, align 8
  %13 = and i32 %12, 4
  %.not.i = icmp eq i32 %13, 0
  tail call void @llvm.assume(i1 %.not.i)
  %.not3942.i = icmp eq i32 %8, 0
  br i1 %.not3942.i, label %php_dom_xpath_callback_ns_get_gc.exit, label %.lr.ph.i

.lr.ph.i:                                         ; preds = %4
  %14 = getelementptr inbounds i8, ptr %1, i64 8
  br label %15

15:                                               ; preds = %48, %.lr.ph.i
  %.043.i = phi ptr [ %6, %.lr.ph.i ], [ %49, %48 ]
  %16 = getelementptr inbounds i8, ptr %.043.i, i64 8
  %17 = load i8, ptr %16, align 8
  %18 = icmp eq i8 %17, 0
  br i1 %18, label %48, label %19

19:                                               ; preds = %15
  %20 = load ptr, ptr %.043.i, align 8
  %21 = load ptr, ptr %20, align 8
  %22 = icmp ne ptr %21, null
  tail call void @llvm.assume(i1 %22)
  %23 = getelementptr inbounds i8, ptr %20, i64 24
  %24 = load ptr, ptr %23, align 8
  %.not40.i = icmp eq ptr %24, null
  br i1 %.not40.i, label %35, label %25

25:                                               ; preds = %19
  %26 = load ptr, ptr %1, align 8
  %27 = load ptr, ptr %14, align 8
  %28 = icmp eq ptr %26, %27
  br i1 %28, label %29, label %30

29:                                               ; preds = %25
  tail call void @zend_get_gc_buffer_grow(ptr noundef nonnull %1) #9
  %.pre.i = load ptr, ptr %1, align 8
  br label %30

30:                                               ; preds = %29, %25
  %31 = phi ptr [ %.pre.i, %29 ], [ %26, %25 ]
  store ptr %24, ptr %31, align 8
  %32 = getelementptr inbounds i8, ptr %31, i64 8
  store i32 776, ptr %32, align 8
  %33 = load ptr, ptr %1, align 8
  %34 = getelementptr inbounds i8, ptr %33, i64 16
  store ptr %34, ptr %1, align 8
  br label %35

35:                                               ; preds = %30, %19
  %36 = getelementptr inbounds i8, ptr %20, i64 32
  %37 = load ptr, ptr %36, align 8
  %.not41.i = icmp eq ptr %37, null
  br i1 %.not41.i, label %48, label %38

38:                                               ; preds = %35
  %39 = load ptr, ptr %1, align 8
  %40 = load ptr, ptr %14, align 8
  %41 = icmp eq ptr %39, %40
  br i1 %41, label %42, label %43

42:                                               ; preds = %38
  tail call void @zend_get_gc_buffer_grow(ptr noundef nonnull %1) #9
  %.pre44.i = load ptr, ptr %1, align 8
  br label %43

43:                                               ; preds = %42, %38
  %44 = phi ptr [ %.pre44.i, %42 ], [ %39, %38 ]
  store ptr %37, ptr %44, align 8
  %45 = getelementptr inbounds i8, ptr %44, i64 8
  store i32 776, ptr %45, align 8
  %46 = load ptr, ptr %1, align 8
  %47 = getelementptr inbounds i8, ptr %46, i64 16
  store ptr %47, ptr %1, align 8
  br label %48

48:                                               ; preds = %43, %35, %15
  %49 = getelementptr inbounds i8, ptr %.043.i, i64 32
  %.not39.i = icmp eq ptr %49, %10
  br i1 %.not39.i, label %php_dom_xpath_callback_ns_get_gc.exit, label %15

php_dom_xpath_callback_ns_get_gc.exit:            ; preds = %48, %4, %2
  %50 = getelementptr inbounds i8, ptr %0, i64 8
  %51 = load ptr, ptr %50, align 8
  %.not20 = icmp eq ptr %51, null
  br i1 %.not20, label %.loopexit, label %52

52:                                               ; preds = %php_dom_xpath_callback_ns_get_gc.exit
  %53 = getelementptr inbounds i8, ptr %51, i64 16
  %54 = load ptr, ptr %53, align 8
  %55 = getelementptr inbounds i8, ptr %51, i64 24
  %56 = load i32, ptr %55, align 8
  %57 = zext i32 %56 to i64
  %58 = getelementptr inbounds %struct._Bucket, ptr %54, i64 %57
  %59 = getelementptr inbounds i8, ptr %51, i64 8
  %60 = load i32, ptr %59, align 8
  %61 = and i32 %60, 4
  %.not21 = icmp eq i32 %61, 0
  tail call void @llvm.assume(i1 %.not21)
  %.not2233 = icmp eq i32 %56, 0
  br i1 %.not2233, label %.loopexit, label %.lr.ph

.lr.ph:                                           ; preds = %52
  %62 = getelementptr inbounds i8, ptr %1, i64 8
  br label %63

63:                                               ; preds = %.lr.ph, %php_dom_xpath_callback_ns_get_gc.exit32
  %.034 = phi ptr [ %54, %.lr.ph ], [ %112, %php_dom_xpath_callback_ns_get_gc.exit32 ]
  %64 = getelementptr inbounds i8, ptr %.034, i64 8
  %65 = load i8, ptr %64, align 8
  %66 = icmp eq i8 %65, 0
  br i1 %66, label %php_dom_xpath_callback_ns_get_gc.exit32, label %67

67:                                               ; preds = %63
  %68 = load ptr, ptr %.034, align 8
  %69 = getelementptr inbounds i8, ptr %68, i64 16
  %70 = load ptr, ptr %69, align 8
  %71 = getelementptr inbounds i8, ptr %68, i64 24
  %72 = load i32, ptr %71, align 8
  %73 = zext i32 %72 to i64
  %74 = getelementptr inbounds %struct._Bucket, ptr %70, i64 %73
  %75 = getelementptr inbounds i8, ptr %68, i64 8
  %76 = load i32, ptr %75, align 8
  %77 = and i32 %76, 4
  %.not.i23 = icmp eq i32 %77, 0
  tail call void @llvm.assume(i1 %.not.i23)
  %.not3942.i24 = icmp eq i32 %72, 0
  br i1 %.not3942.i24, label %php_dom_xpath_callback_ns_get_gc.exit32, label %.lr.ph.i25

.lr.ph.i25:                                       ; preds = %67, %110
  %.043.i26 = phi ptr [ %111, %110 ], [ %70, %67 ]
  %78 = getelementptr inbounds i8, ptr %.043.i26, i64 8
  %79 = load i8, ptr %78, align 8
  %80 = icmp eq i8 %79, 0
  br i1 %80, label %110, label %81

81:                                               ; preds = %.lr.ph.i25
  %82 = load ptr, ptr %.043.i26, align 8
  %83 = load ptr, ptr %82, align 8
  %84 = icmp ne ptr %83, null
  tail call void @llvm.assume(i1 %84)
  %85 = getelementptr inbounds i8, ptr %82, i64 24
  %86 = load ptr, ptr %85, align 8
  %.not40.i27 = icmp eq ptr %86, null
  br i1 %.not40.i27, label %97, label %87

87:                                               ; preds = %81
  %88 = load ptr, ptr %1, align 8
  %89 = load ptr, ptr %62, align 8
  %90 = icmp eq ptr %88, %89
  br i1 %90, label %91, label %92

91:                                               ; preds = %87
  tail call void @zend_get_gc_buffer_grow(ptr noundef nonnull %1) #9
  %.pre.i31 = load ptr, ptr %1, align 8
  br label %92

92:                                               ; preds = %91, %87
  %93 = phi ptr [ %.pre.i31, %91 ], [ %88, %87 ]
  store ptr %86, ptr %93, align 8
  %94 = getelementptr inbounds i8, ptr %93, i64 8
  store i32 776, ptr %94, align 8
  %95 = load ptr, ptr %1, align 8
  %96 = getelementptr inbounds i8, ptr %95, i64 16
  store ptr %96, ptr %1, align 8
  br label %97

97:                                               ; preds = %92, %81
  %98 = getelementptr inbounds i8, ptr %82, i64 32
  %99 = load ptr, ptr %98, align 8
  %.not41.i28 = icmp eq ptr %99, null
  br i1 %.not41.i28, label %110, label %100

100:                                              ; preds = %97
  %101 = load ptr, ptr %1, align 8
  %102 = load ptr, ptr %62, align 8
  %103 = icmp eq ptr %101, %102
  br i1 %103, label %104, label %105

104:                                              ; preds = %100
  tail call void @zend_get_gc_buffer_grow(ptr noundef nonnull %1) #9
  %.pre44.i30 = load ptr, ptr %1, align 8
  br label %105

105:                                              ; preds = %104, %100
  %106 = phi ptr [ %.pre44.i30, %104 ], [ %101, %100 ]
  store ptr %99, ptr %106, align 8
  %107 = getelementptr inbounds i8, ptr %106, i64 8
  store i32 776, ptr %107, align 8
  %108 = load ptr, ptr %1, align 8
  %109 = getelementptr inbounds i8, ptr %108, i64 16
  store ptr %109, ptr %1, align 8
  br label %110

110:                                              ; preds = %105, %97, %.lr.ph.i25
  %111 = getelementptr inbounds i8, ptr %.043.i26, i64 32
  %.not39.i29 = icmp eq ptr %111, %74
  br i1 %.not39.i29, label %php_dom_xpath_callback_ns_get_gc.exit32, label %.lr.ph.i25

php_dom_xpath_callback_ns_get_gc.exit32:          ; preds = %110, %67, %63
  %112 = getelementptr inbounds i8, ptr %.034, i64 32
  %.not22 = icmp eq ptr %112, %58
  br i1 %.not22, label %.loopexit, label %63

.loopexit:                                        ; preds = %php_dom_xpath_callback_ns_get_gc.exit32, %52, %php_dom_xpath_callback_ns_get_gc.exit
  ret void
}